; Function Attrs: mustprogress nofree norecurse nosync nounwind willreturn memory(argmem: readwrite) uwtable
define dso_local void @_ZNK21btConeTwistConstraint33adjustSwingAxisToUseEllipseNormalER9btVector3(ptr noundef nonnull readonly align 8 captures(none) dereferenceable(632) %0, ptr noundef nonnull align 4 captures(none) dereferenceable(16) %1) local_unnamed_addr #10 align 2 {
  %3 = getelementptr inbounds nuw i8, ptr %1, i64 4
  %4 = load float, ptr %3, align 4, !tbaa !51
  %5 = tail call noundef float @llvm.fabs.f32(float %4)
  %6 = fcmp ogt float %5, 0x3E80000000000000
  br i1 %6, label %7, label %31

7:                                                ; preds = %2
  %8 = getelementptr inbounds nuw i8, ptr %1, i64 8
  %9 = load float, ptr %8, align 4, !tbaa !51
  %10 = fneg float %9
  %11 = fdiv float %10, %4
  %12 = getelementptr inbounds nuw i8, ptr %0, i64 472
  %13 = load float, ptr %12, align 8, !tbaa !27
  %14 = getelementptr inbounds nuw i8, ptr %0, i64 468
  %15 = load float, ptr %14, align 4, !tbaa !26
  %16 = fdiv float %13, %15
  %17 = fmul float %11, %16
  %18 = fcmp olt float %9, 0.000000e+00
  %19 = fmul float %4, %17
  %20 = tail call noundef float @llvm.fabs.f32(float %19)
  %21 = fneg float %20
  %.0 = select i1 %18, float %20, float %21
  %22 = fneg float %.0
  %23 = load float, ptr %1, align 4, !tbaa !51
  %24 = fmul float %4, %4
  %25 = tail call float @llvm.fmuladd.f32(float %23, float %23, float %24)
  %26 = tail call noundef float @llvm.fmuladd.f32(float %.0, float %.0, float %25)
  %sqrt.i.i = tail call noundef float @llvm.sqrt.f32(float %26)
  %27 = fdiv float 1.000000e+00, %sqrt.i.i
  %28 = fmul float %23, %27
  store float %28, ptr %1, align 4, !tbaa !51
  %29 = fmul float %4, %27
  store float %29, ptr %3, align 4, !tbaa !51
  %30 = fmul float %27, %22
  store float %30, ptr %8, align 4, !tbaa !51
  br label %31

31:                                               ; preds = %7, %2
  ret void
}